; Function Attrs: mustprogress uwtable
define void @_ZN5faiss33IndexIVFAdditiveQuantizerFastScanC2Ev(ptr noundef nonnull align 8 dereferenceable(368) %0) unnamed_addr #2 align 2 {
  tail call void @_ZN5faiss16IndexIVFFastScanC2Ev(ptr noundef nonnull align 8 dereferenceable(344) %0)
  store ptr getelementptr inbounds nuw inrange(-16, 288) (i8, ptr @_ZTVN5faiss33IndexIVFAdditiveQuantizerFastScanE, i64 16), ptr %0, align 8, !tbaa !61
  %2 = getelementptr inbounds nuw i8, ptr %0, i64 40
  store ptr getelementptr inbounds nuw inrange(-16, 32) (i8, ptr @_ZTVN5faiss33IndexIVFAdditiveQuantizerFastScanE, i64 320), ptr %2, align 8, !tbaa !61
  %3 = getelementptr inbounds nuw i8, ptr %0, i64 352
  store i8 0, ptr %3, align 8, !tbaa !15
  %4 = getelementptr inbounds nuw i8, ptr %0, i64 356
  store i32 1, ptr %4, align 4, !tbaa !105
  %5 = getelementptr inbounds nuw i8, ptr %0, i64 268
  store i32 0, ptr %5, align 4, !tbaa !119
  %6 = getelementptr inbounds nuw i8, ptr %0, i64 296
  store i64 0, ptr %6, align 8, !tbaa !115
  %7 = getelementptr inbounds nuw i8, ptr %0, i64 344
  store ptr null, ptr %7, align 8, !tbaa !71
  %8 = getelementptr inbounds nuw i8, ptr %0, i64 25
  store i8 0, ptr %8, align 1, !tbaa !111
  ret void
}